target datalayout = "e-m:e-p270:32:32-p271:32:32-p272:64:64-i64:64-i128:128-f80:128-n8:16:32:64-S128"
target triple = "x86_64-pc-linux-gnu"

%struct.Vec_Int_t_ = type { i32, i32, ptr }
%struct.Gia_ResbMan_t_ = type { i32, i32, i32, i32, i32, i32, i32, i32, ptr, ptr, [2 x ptr], [2 x ptr], [2 x ptr], ptr, [2 x ptr], [2 x ptr], ptr, [2 x ptr], ptr, ptr, ptr }
%struct.Vec_Ptr_t_ = type { i32, i32, ptr }

@.str.4 = private unnamed_addr constant [2 x i8] c"\0A\00", align 1
@.str.29 = private unnamed_addr constant [22 x i8] c"Verification FAILED.\0A\00", align 1
@.str.30 = private unnamed_addr constant [24 x i8] c"Verification succeeded.\00", align 1

; Function Attrs: inlinehint nounwind uwtable
define internal ptr @Vec_IntDup(ptr noundef %0) #2 {
  %2 = alloca ptr, align 8
  %3 = alloca ptr, align 8
  store ptr %0, ptr %2, align 8, !tbaa !12
  call void @llvm.lifetime.start.p0(i64 8, ptr %3) #14
  %4 = call noalias ptr @malloc(i64 noundef 16) #15
  store ptr %4, ptr %3, align 8, !tbaa !12
  %5 = load ptr, ptr %2, align 8, !tbaa !12
  %6 = getelementptr inbounds nuw %struct.Vec_Int_t_, ptr %5, i32 0, i32 1
  %7 = load i32, ptr %6, align 4, !tbaa !14
  %8 = load ptr, ptr %3, align 8, !tbaa !12
  %9 = getelementptr inbounds nuw %struct.Vec_Int_t_, ptr %8, i32 0, i32 1
  store i32 %7, ptr %9, align 4, !tbaa !14
  %10 = load ptr, ptr %2, align 8, !tbaa !12
  %11 = getelementptr inbounds nuw %struct.Vec_Int_t_, ptr %10, i32 0, i32 1
  %12 = load i32, ptr %11, align 4, !tbaa !14
  %13 = load ptr, ptr %3, align 8, !tbaa !12
  %14 = getelementptr inbounds nuw %struct.Vec_Int_t_, ptr %13, i32 0, i32 0
  store i32 %12, ptr %14, align 8, !tbaa !17
  %15 = load ptr, ptr %3, align 8, !tbaa !12
  %16 = getelementptr inbounds nuw %struct.Vec_Int_t_, ptr %15, i32 0, i32 0
  %17 = load i32, ptr %16, align 8, !tbaa !17
  %18 = icmp ne i32 %17, 0
  br i1 %18, label %19, label %26

19:                                               ; preds = %1
  %20 = load ptr, ptr %3, align 8, !tbaa !12
  %21 = getelementptr inbounds nuw %struct.Vec_Int_t_, ptr %20, i32 0, i32 0
  %22 = load i32, ptr %21, align 8, !tbaa !17
  %23 = sext i32 %22 to i64
  %24 = mul i64 4, %23
  %25 = call noalias ptr @malloc(i64 noundef %24) #15
  br label %27

26:                                               ; preds = %1
  br label %27

27:                                               ; preds = %26, %19
  %28 = phi ptr [ %25, %19 ], [ null, %26 ]
  %29 = load ptr, ptr %3, align 8, !tbaa !12
  %30 = getelementptr inbounds nuw %struct.Vec_Int_t_, ptr %29, i32 0, i32 2
  store ptr %28, ptr %30, align 8, !tbaa !18
  %31 = load ptr, ptr %3, align 8, !tbaa !12
  %32 = getelementptr inbounds nuw %struct.Vec_Int_t_, ptr %31, i32 0, i32 2
  %33 = load ptr, ptr %32, align 8, !tbaa !18
  %34 = load ptr, ptr %2, align 8, !tbaa !12
  %35 = getelementptr inbounds nuw %struct.Vec_Int_t_, ptr %34, i32 0, i32 2
  %36 = load ptr, ptr %35, align 8, !tbaa !18
  %37 = load ptr, ptr %2, align 8, !tbaa !12
  %38 = getelementptr inbounds nuw %struct.Vec_Int_t_, ptr %37, i32 0, i32 1
  %39 = load i32, ptr %38, align 4, !tbaa !14
  %40 = sext i32 %39 to i64
  %41 = mul i64 4, %40
  call void @llvm.memcpy.p0.p0.i64(ptr align 4 %33, ptr align 4 %36, i64 %41, i1 false)
  %42 = load ptr, ptr %3, align 8, !tbaa !12
  call void @llvm.lifetime.end.p0(i64 8, ptr %3) #14
  ret ptr %42
}

; Function Attrs: inlinehint nounwind uwtable
define internal i32 @Vec_PtrSize(ptr noundef %0) #2 {
  %2 = alloca ptr, align 8
  store ptr %0, ptr %2, align 8, !tbaa !80
  %3 = load ptr, ptr %2, align 8, !tbaa !80
  %4 = getelementptr inbounds nuw %struct.Vec_Ptr_t_, ptr %3, i32 0, i32 1
  %5 = load i32, ptr %4, align 4, !tbaa !81
  ret i32 %5
}

; Function Attrs: nounwind uwtable
define ptr @Gia_ManResubOne(ptr noundef %0, i32 noundef %1, i32 noundef %2, i32 noundef %3, i32 noundef %4, i32 noundef %5, i32 noundef %6, i32 noundef %7, ptr noundef %8, i32 noundef %9) #0 {
  %11 = alloca ptr, align 8
  %12 = alloca i32, align 4
  %13 = alloca i32, align 4
  %14 = alloca i32, align 4
  %15 = alloca i32, align 4
  %16 = alloca i32, align 4
  %17 = alloca i32, align 4
  %18 = alloca i32, align 4
  %19 = alloca ptr, align 8
  %20 = alloca i32, align 4
  %21 = alloca ptr, align 8
  %22 = alloca ptr, align 8
  store ptr %0, ptr %11, align 8, !tbaa !80
  store i32 %1, ptr %12, align 4, !tbaa !10
  store i32 %2, ptr %13, align 4, !tbaa !10
  store i32 %3, ptr %14, align 4, !tbaa !10
  store i32 %4, ptr %15, align 4, !tbaa !10
  store i32 %5, ptr %16, align 4, !tbaa !10
  store i32 %6, ptr %17, align 4, !tbaa !10
  store i32 %7, ptr %18, align 4, !tbaa !10
  store ptr %8, ptr %19, align 8, !tbaa !76
  store i32 %9, ptr %20, align 4, !tbaa !10
  call void @llvm.lifetime.start.p0(i64 8, ptr %21) #14
  call void @llvm.lifetime.start.p0(i64 8, ptr %22) #14
  %23 = load i32, ptr %12, align 4, !tbaa !10
  %24 = call ptr @Gia_ResbAlloc(i32 noundef %23)
  store ptr %24, ptr %22, align 8, !tbaa !67
  %25 = load ptr, ptr %22, align 8, !tbaa !67
  %26 = load ptr, ptr %11, align 8, !tbaa !80
  %27 = load i32, ptr %12, align 4, !tbaa !10
  %28 = load i32, ptr %13, align 4, !tbaa !10
  %29 = load i32, ptr %14, align 4, !tbaa !10
  %30 = load i32, ptr %15, align 4, !tbaa !10
  %31 = load i32, ptr %16, align 4, !tbaa !10
  %32 = load i32, ptr %17, align 4, !tbaa !10
  %33 = load i32, ptr %18, align 4, !tbaa !10
  %34 = load i32, ptr %20, align 4, !tbaa !10
  call void @Gia_ManResubPerform(ptr noundef %25, ptr noundef %26, i32 noundef %27, i32 noundef %28, i32 noundef %29, i32 noundef %30, i32 noundef %31, i32 noundef %32, i32 noundef %33, i32 noundef %34)
  %35 = load i32, ptr %18, align 4, !tbaa !10
  %36 = icmp ne i32 %35, 0
  br i1 %36, label %37, label %44

37:                                               ; preds = %10
  %38 = load ptr, ptr %22, align 8, !tbaa !67
  %39 = getelementptr inbounds nuw %struct.Gia_ResbMan_t_, ptr %38, i32 0, i32 9
  %40 = load ptr, ptr %39, align 8, !tbaa !74
  %41 = load ptr, ptr %11, align 8, !tbaa !80
  %42 = call i32 @Vec_PtrSize(ptr noundef %41)
  %43 = call i32 @Gia_ManResubPrint(ptr noundef %40, i32 noundef %42)
  br label %44

44:                                               ; preds = %37, %10
  %45 = load ptr, ptr %22, align 8, !tbaa !67
  %46 = load ptr, ptr %19, align 8, !tbaa !76
  %47 = call i32 @Gia_ManResubVerify(ptr noundef %45, ptr noundef %46)
  %48 = icmp ne i32 %47, 0
  br i1 %48, label %57, label %49

49:                                               ; preds = %44
  %50 = load ptr, ptr %22, align 8, !tbaa !67
  %51 = getelementptr inbounds nuw %struct.Gia_ResbMan_t_, ptr %50, i32 0, i32 9
  %52 = load ptr, ptr %51, align 8, !tbaa !74
  %53 = load ptr, ptr %11, align 8, !tbaa !80
  %54 = call i32 @Vec_PtrSize(ptr noundef %53)
  %55 = call i32 @Gia_ManResubPrint(ptr noundef %52, i32 noundef %54)
  %56 = call i32 (ptr, ...) @printf(ptr noundef @.str.29)
  br label %66

57:                                               ; preds = %44
  %58 = load i32, ptr %17, align 4, !tbaa !10
  %59 = icmp ne i32 %58, 0
  br i1 %59, label %60, label %65

60:                                               ; preds = %57
  %61 = load i32, ptr %18, align 4, !tbaa !10
  %62 = icmp ne i32 %61, 0
  br i1 %62, label %63, label %65

63:                                               ; preds = %60
  %64 = call i32 (ptr, ...) @printf(ptr noundef @.str.30)
  br label %65

65:                                               ; preds = %63, %60, %57
  br label %66

66:                                               ; preds = %65, %49
  %67 = load i32, ptr %18, align 4, !tbaa !10
  %68 = icmp ne i32 %67, 0
  br i1 %68, label %69, label %71

69:                                               ; preds = %66
  %70 = call i32 (ptr, ...) @printf(ptr noundef @.str.4)
  br label %71

71:                                               ; preds = %69, %66
  %72 = load ptr, ptr %22, align 8, !tbaa !67
  %73 = getelementptr inbounds nuw %struct.Gia_ResbMan_t_, ptr %72, i32 0, i32 9
  %74 = load ptr, ptr %73, align 8, !tbaa !74
  %75 = call ptr @Vec_IntDup(ptr noundef %74)
  store ptr %75, ptr %21, align 8, !tbaa !12
  %76 = load ptr, ptr %22, align 8, !tbaa !67
  call void @Gia_ResbFree(ptr noundef %76)
  %77 = load ptr, ptr %21, align 8, !tbaa !12
  call void @llvm.lifetime.end.p0(i64 8, ptr %22) #14
  call void @llvm.lifetime.end.p0(i64 8, ptr %21) #14
  ret ptr %77
}