; Function Attrs: nounwind uwtable
define noalias noundef ptr @Gia_ManResubOne(ptr noundef readonly captures(none) %0, i32 noundef %1, i32 noundef %2, i32 noundef %3, i32 noundef %4, i32 noundef %5, i32 noundef %6, i32 noundef %7, ptr noundef %8, i32 noundef %9) local_unnamed_addr #0 {
  %11 = tail call ptr @Gia_ResbAlloc(i32 noundef %1)
  tail call void @Gia_ManResubPerform(ptr noundef %11, ptr noundef %0, i32 noundef %1, i32 noundef %2, i32 noundef %3, i32 noundef %4, i32 noundef %5, i32 noundef %6, i32 noundef %7, i32 noundef %9)
  %12 = icmp ne i32 %7, 0
  br i1 %12, label %13, label %18

13:                                               ; preds = %10
  %14 = getelementptr inbounds nuw i8, ptr %11, i64 40
  %15 = load ptr, ptr %14, align 8, !tbaa !72
  %16 = getelementptr i8, ptr %0, i64 4
  %.val24 = load i32, ptr %16, align 4, !tbaa !73
  %17 = tail call i32 @Gia_ManResubPrint(ptr noundef %15, i32 noundef %.val24)
  br label %18

18:                                               ; preds = %13, %10
  %19 = tail call i32 @Gia_ManResubVerify(ptr noundef %11, ptr noundef %8)
  %.not = icmp eq i32 %19, 0
  br i1 %.not, label %20, label %25

20:                                               ; preds = %18
  %21 = getelementptr inbounds nuw i8, ptr %11, i64 40
  %22 = load ptr, ptr %21, align 8, !tbaa !72
  %23 = getelementptr i8, ptr %0, i64 4
  %.val = load i32, ptr %23, align 4, !tbaa !73
  %24 = tail call i32 @Gia_ManResubPrint(ptr noundef %22, i32 noundef %.val)
  %puts = tail call i32 @puts(ptr nonnull dereferenceable(1) @str.1)
  br label %28

25:                                               ; preds = %18
  %26 = icmp ne i32 %6, 0
  %or.cond = and i1 %26, %12
  br i1 %or.cond, label %.thread, label %28

.thread:                                          ; preds = %25
  %27 = tail call i32 (ptr, ...) @printf(ptr noundef nonnull dereferenceable(1) @.str.30)
  br label %29

28:                                               ; preds = %25, %20
  br i1 %12, label %29, label %30

29:                                               ; preds = %.thread, %28
  %putchar = tail call i32 @putchar(i32 10)
  br label %30

30:                                               ; preds = %29, %28
  %31 = getelementptr inbounds nuw i8, ptr %11, i64 40
  %32 = load ptr, ptr %31, align 8, !tbaa !72
  %33 = tail call noalias dereferenceable_or_null(16) ptr @malloc(i64 noundef 16) #31
  %34 = getelementptr inbounds nuw i8, ptr %32, i64 4
  %35 = load i32, ptr %34, align 4, !tbaa !28
  %36 = getelementptr inbounds nuw i8, ptr %33, i64 4
  store i32 %35, ptr %36, align 4, !tbaa !28
  store i32 %35, ptr %33, align 8, !tbaa !29
  %.not.i = icmp eq i32 %35, 0
  br i1 %.not.i, label %Vec_IntDup.exit, label %37

37:                                               ; preds = %30
  %38 = sext i32 %35 to i64
  %39 = shl nsw i64 %38, 2
  %40 = tail call noalias ptr @malloc(i64 noundef %39) #31
  br label %Vec_IntDup.exit

Vec_IntDup.exit:                                  ; preds = %30, %37
  %.pre-phi12.i = phi i64 [ %39, %37 ], [ 0, %30 ]
  %41 = phi ptr [ %40, %37 ], [ null, %30 ]
  %42 = getelementptr inbounds nuw i8, ptr %33, i64 8
  store ptr %41, ptr %42, align 8, !tbaa !30
  %43 = getelementptr inbounds nuw i8, ptr %32, i64 8
  %44 = load ptr, ptr %43, align 8, !tbaa !30
  tail call void @llvm.memcpy.p0.p0.i64(ptr align 4 %41, ptr align 4 %44, i64 %.pre-phi12.i, i1 false)
  tail call void @Gia_ResbFree(ptr noundef nonnull %11)
  ret ptr %33
}